; Function Attrs: nofree norecurse nosync nounwind memory(read, argmem: readwrite, inaccessiblemem: none) uwtable
define range(i32 -1, 1) i32 @pmix_hash_table_get_next_key_uint64(ptr noundef readonly captures(none) %0, ptr noundef writeonly captures(none) %1, ptr noundef writeonly captures(none) %2, ptr noundef %3, ptr noundef writeonly captures(none) %4) local_unnamed_addr #2 {
  %6 = getelementptr i8, ptr %0, i64 128
  %.val = load ptr, ptr %6, align 8, !tbaa !17
  %7 = getelementptr i8, ptr %0, i64 136
  %.val5 = load i64, ptr %7, align 8, !tbaa !11
  %8 = icmp eq ptr %3, null
  br i1 %8, label %15, label %9

9:                                                ; preds = %5
  %10 = ptrtoint ptr %3 to i64
  %11 = ptrtoint ptr %.val to i64
  %12 = sub i64 %10, %11
  %13 = sdiv exact i64 %12, 40
  %14 = add nsw i64 %13, 1
  br label %15

15:                                               ; preds = %9, %5
  %16 = phi i64 [ %14, %9 ], [ 0, %5 ]
  %17 = icmp ult i64 %16, %.val5
  br i1 %17, label %.critedge.i, label %pmix_hash_table_get_next_elt.exit.thread

18:                                               ; preds = %.critedge.i
  %19 = add i64 %.0151.i, 1
  %exitcond.not.i = icmp eq i64 %19, %.val5
  br i1 %exitcond.not.i, label %pmix_hash_table_get_next_elt.exit.thread, label %.critedge.i, !llvm.loop !45

.critedge.i:                                      ; preds = %15, %18
  %.0151.i = phi i64 [ %19, %18 ], [ %16, %15 ]
  %20 = getelementptr inbounds nuw %struct.pmix_hash_element_t, ptr %.val, i64 %.0151.i
  %21 = load i32, ptr %20, align 8, !tbaa !18
  %.not.i = icmp eq i32 %21, 0
  br i1 %.not.i, label %18, label %pmix_hash_table_get_next_elt.exit

pmix_hash_table_get_next_elt.exit:                ; preds = %.critedge.i
  %22 = getelementptr inbounds nuw i8, ptr %20, i64 8
  %23 = load i64, ptr %22, align 8, !tbaa !36
  store i64 %23, ptr %1, align 8, !tbaa !46
  %24 = getelementptr inbounds nuw i8, ptr %20, i64 32
  %25 = load ptr, ptr %24, align 8, !tbaa !24
  store ptr %25, ptr %2, align 8, !tbaa !37
  store ptr %20, ptr %4, align 8, !tbaa !37
  br label %pmix_hash_table_get_next_elt.exit.thread

pmix_hash_table_get_next_elt.exit.thread:         ; preds = %18, %15, %pmix_hash_table_get_next_elt.exit
  %.0 = phi i32 [ 0, %pmix_hash_table_get_next_elt.exit ], [ -1, %15 ], [ -1, %18 ]
  ret i32 %.0
}